; Function Attrs: mustprogress nofree norecurse nosync nounwind willreturn memory(read, argmem: readwrite, inaccessiblemem: none) uwtable
define void @_ZNK3gmx17SelectionPositioncvNS_29AnalysisNeighborhoodPositionsEEv(ptr dead_on_unwind noalias nocapture writable writeonly sret(%"class.gmx::AnalysisNeighborhoodPositions") align 8 %0, ptr nocapture noundef nonnull readonly align 8 dereferenceable(12) %1) local_unnamed_addr #11 align 2 {
  %3 = load ptr, ptr %1, align 8
  %4 = getelementptr inbounds i8, ptr %3, i64 64
  %5 = load ptr, ptr %4, align 8
  %6 = getelementptr inbounds i8, ptr %3, i64 112
  %7 = load i32, ptr %6, align 8
  %8 = getelementptr inbounds i8, ptr %3, i64 88
  %9 = load i32, ptr %8, align 8
  %10 = icmp eq i32 %9, 1
  br i1 %10, label %11, label %14

11:                                               ; preds = %2
  %12 = getelementptr inbounds i8, ptr %3, i64 136
  %13 = load ptr, ptr %12, align 8
  br label %14

14:                                               ; preds = %11, %2
  %.sroa.5.0 = phi ptr [ %13, %11 ], [ null, %2 ]
  %15 = getelementptr inbounds i8, ptr %1, i64 8
  %16 = load i32, ptr %15, align 8
  store i32 %7, ptr %0, align 8
  %.sroa.2.0..sroa_idx = getelementptr inbounds i8, ptr %0, i64 4
  store i32 %16, ptr %.sroa.2.0..sroa_idx, align 4
  %.sroa.4.0..sroa_idx = getelementptr inbounds i8, ptr %0, i64 8
  store ptr %5, ptr %.sroa.4.0..sroa_idx, align 8
  %.sroa.5.0..sroa_idx = getelementptr inbounds i8, ptr %0, i64 16
  store ptr %.sroa.5.0, ptr %.sroa.5.0..sroa_idx, align 8
  %.sroa.7.0..sroa_idx = getelementptr inbounds i8, ptr %0, i64 24
  store ptr null, ptr %.sroa.7.0..sroa_idx, align 8
  ret void
}